Certificate:
    Data:
        Version: 3 (0x2)
        Serial Number:
            9a:80:c1:72:06:28:eb:48:a8:c8:95:e0:db:46:37:44
        Signature Algorithm: ecdsa-with-SHA512
        Issuer: CN=worms-ca-soho (worms.home)
        Validity
            Not Before: Aug 11 10:11:57 2023 GMT
            Not After : Aug 10 10:11:57 2043 GMT
        Subject: CN=worm@worms.home
        Subject Public Key Info:
            Public Key Algorithm: id-ecPublicKey
                Public-Key: (384 bit)
                pub:
                    04:85:c1:1c:65:06:91:d2:f1:a0:c4:8b:2c:cf:ad:
                    3a:7a:83:95:07:01:7e:34:13:eb:7f:28:ee:ae:07:
                    9a:4b:3e:2f:9a:fa:9d:7d:28:47:86:08:ea:18:b0:
                    7d:dd:26:b8:f1:41:53:c1:dc:69:bd:ca:4d:3c:b6:
                    33:bf:2c:03:d2:fc:1a:dc:f7:05:12:8e:94:2a:9d:
                    eb:e0:aa:61:4b:1f:ac:c7:90:66:9b:58:b0:c5:b2:
                    91:08:62:5d:f3:bf:01
                ASN1 OID: secp384r1
                NIST CURVE: P-384
        X509v3 extensions:
            X509v3 Basic Constraints: 
                CA:FALSE
            X509v3 Subject Key Identifier: 
                EB:71:B8:53:11:0D:0B:AB:D4:0F:53:9E:9A:0E:20:73:9E:39:F7:D3
            X509v3 Authority Key Identifier: 
                keyid:0A:09:A4:DC:13:6F:09:9F:8B:73:06:CC:E8:BF:3F:D7:A2:C4:2D:9B
                DirName:/CN=worms-ca-soho (worms.home)
                serial:13:0C:CF:02:95:48:92:67:12:D3:61:28:29:CB:0F:C7:22:67:0A:B1
            X509v3 Extended Key Usage: 
                TLS Web Server Authentication
            X509v3 Key Usage: 
                Digital Signature, Key Encipherment
            X509v3 Subject Alternative Name: 
                DNS:worm@worms.home, DNS:worm0@worms.home
    Signature Algorithm: ecdsa-with-SHA512
    Signature Value:
        30:64:02:30:7f:2c:21:28:43:bb:44:c9:49:44:67:97:38:ef:
        06:16:03:12:a9:6f:52:78:4b:01:31:3e:b0:f5:45:4c:34:78:
        21:6b:47:b6:b8:ee:46:97:a9:d2:cd:59:50:21:57:07:02:30:
        63:92:1b:ae:0e:88:23:74:fc:59:44:56:97:2c:27:70:2e:47:
        5d:4f:34:7d:97:98:25:61:49:f5:20:bb:13:f0:06:b6:e2:96:
        ac:37:3c:15:de:d1:3e:6b:6d:f0:3f:40
-----BEGIN CERTIFICATE-----
MIICWjCCAeGgAwIBAgIRAJqAwXIGKOtIqMiV4NtGN0QwCgYIKoZIzj0EAwQwJTEj
MCEGA1UEAwwad29ybXMtY2Etc29obyAod29ybXMuaG9tZSkwHhcNMjMwODExMTAx
MTU3WhcNNDMwODEwMTAxMTU3WjAaMRgwFgYDVQQDDA93b3JtQHdvcm1zLmhvbWUw
djAQBgcqhkjOPQIBBgUrgQQAIgNiAASFwRxlBpHS8aDEiyzPrTp6g5UHAX40E+t/
KO6uB5pLPi+a+p19KEeGCOoYsH3dJrjxQVPB3Gm9yk08tjO/LAPS/Brc9wUSjpQq
nevgqmFLH6zHkGabWLDFspEIYl3zvwGjgd8wgdwwCQYDVR0TBAIwADAdBgNVHQ4E
FgQU63G4UxENC6vUD1Oemg4gc54599MwYAYDVR0jBFkwV4AUCgmk3BNvCZ+LcwbM
6L8/16LELZuhKaQnMCUxIzAhBgNVBAMMGndvcm1zLWNhLXNvaG8gKHdvcm1zLmhv
bWUpghQTDM8ClUiSZxLTYSgpyw/HImcKsTATBgNVHSUEDDAKBggrBgEFBQcDATAL
BgNVHQ8EBAMCBaAwLAYDVR0RBCUwI4IPd29ybUB3b3Jtcy5ob21lghB3b3JtMEB3
b3Jtcy5ob21lMAoGCCqGSM49BAMEA2cAMGQCMH8sIShDu0TJSURnlzjvBhYDEqlv
UnhLATE+sPVFTDR4IWtHtrjuRpep0s1ZUCFXBwIwY5Ibrg6II3T8WURWlywncC5H
XU80fZeYJWFJ9SC7E/AGtuKWrDc8Fd7RPmtt8D9A
-----END CERTIFICATE-----
